target datalayout = "e-m:e-p270:32:32-p271:32:32-p272:64:64-i64:64-i128:128-f80:128-n8:16:32:64-S128"
target triple = "x86_64-unknown-linux-gnu"

%"struct.std::_Vector_base.47" = type { %"struct.std::_Vector_base<double, std::allocator<double>>::_Vector_impl" }
%"struct.std::_Vector_base<double, std::allocator<double>>::_Vector_impl" = type { %"struct.std::_Vector_base<double, std::allocator<double>>::_Vector_impl_data" }
%"struct.std::_Vector_base<double, std::allocator<double>>::_Vector_impl_data" = type { ptr, ptr, ptr }

@_ZN19OpenColorIO_v2_4devL9ATTR_BASEE = internal constant [5 x i8] c"base\00", align 1
@_ZN19OpenColorIO_v2_4devL17ATTR_LINSIDESLOPEE = internal constant [13 x i8] c"linSideSlope\00", align 1
@_ZN19OpenColorIO_v2_4devL18ATTR_LINSIDEOFFSETE = internal constant [14 x i8] c"linSideOffset\00", align 1
@_ZN19OpenColorIO_v2_4devL17ATTR_LOGSIDESLOPEE = internal constant [13 x i8] c"logSideSlope\00", align 1
@_ZN19OpenColorIO_v2_4devL18ATTR_LOGSIDEOFFSETE = internal constant [14 x i8] c"logSideOffset\00", align 1
@_ZN19OpenColorIO_v2_4devL17ATTR_LINSIDEBREAKE = internal constant [13 x i8] c"linSideBreak\00", align 1
@_ZN19OpenColorIO_v2_4devL16ATTR_LINEARSLOPEE = internal constant [12 x i8] c"linearSlope\00", align 1

; Function Attrs: mustprogress nounwind uwtable
define linkonce_odr hidden noundef i64 @_ZNKSt6vectorIdSaIdEE4sizeEv(ptr noundef nonnull align 8 dereferenceable(24) %this) #4 comdat align 2 {
entry:
  %this.addr = alloca ptr, align 8
  store ptr %this, ptr %this.addr, align 8
  %this1 = load ptr, ptr %this.addr, align 8
  %_M_impl = getelementptr inbounds %"struct.std::_Vector_base.47", ptr %this1, i32 0, i32 0
  %_M_finish = getelementptr inbounds %"struct.std::_Vector_base<double, std::allocator<double>>::_Vector_impl_data", ptr %_M_impl, i32 0, i32 1
  %0 = load ptr, ptr %_M_finish, align 8
  %_M_impl2 = getelementptr inbounds %"struct.std::_Vector_base.47", ptr %this1, i32 0, i32 0
  %_M_start = getelementptr inbounds %"struct.std::_Vector_base<double, std::allocator<double>>::_Vector_impl_data", ptr %_M_impl2, i32 0, i32 0
  %1 = load ptr, ptr %_M_start, align 8
  %sub.ptr.lhs.cast = ptrtoint ptr %0 to i64
  %sub.ptr.rhs.cast = ptrtoint ptr %1 to i64
  %sub.ptr.sub = sub i64 %sub.ptr.lhs.cast, %sub.ptr.rhs.cast
  %sub.ptr.div = sdiv exact i64 %sub.ptr.sub, 8
  ret i64 %sub.ptr.div
}

; Function Attrs: mustprogress nounwind uwtable
define linkonce_odr hidden noundef nonnull align 8 dereferenceable(8) ptr @_ZNKSt6vectorIdSaIdEEixEm(ptr noundef nonnull align 8 dereferenceable(24) %this, i64 noundef %__n) #4 comdat align 2 {
entry:
  %this.addr = alloca ptr, align 8
  %__n.addr = alloca i64, align 8
  store ptr %this, ptr %this.addr, align 8
  store i64 %__n, ptr %__n.addr, align 8
  %this1 = load ptr, ptr %this.addr, align 8
  %_M_impl = getelementptr inbounds %"struct.std::_Vector_base.47", ptr %this1, i32 0, i32 0
  %_M_start = getelementptr inbounds %"struct.std::_Vector_base<double, std::allocator<double>>::_Vector_impl_data", ptr %_M_impl, i32 0, i32 0
  %0 = load ptr, ptr %_M_start, align 8
  %1 = load i64, ptr %__n.addr, align 8
  %add.ptr = getelementptr inbounds double, ptr %0, i64 %1
  ret ptr %add.ptr
}

; Function Attrs: mustprogress uwtable
define internal void @_ZN19OpenColorIO_v2_4dev12_GLOBAL__N_112_GLOBAL__N_112AddLogParamsERSt6vectorISt4pairINSt7__cxx1112basic_stringIcSt11char_traitsIcESaIcEEES9_ESaISA_EERKS2_IdSaIdEEd(ptr noundef nonnull align 8 dereferenceable(24) %attributes, ptr noundef nonnull align 8 dereferenceable(24) %params, double noundef %base) #5 {
entry:
  %attributes.addr = alloca ptr, align 8
  %params.addr = alloca ptr, align 8
  %base.addr = alloca double, align 8
  store ptr %attributes, ptr %attributes.addr, align 8
  store ptr %params, ptr %params.addr, align 8
  store double %base, ptr %base.addr, align 8
  %0 = load ptr, ptr %attributes.addr, align 8
  %1 = load double, ptr %base.addr, align 8
  call void @_ZN19OpenColorIO_v2_4dev12_GLOBAL__N_112_GLOBAL__N_111AddLogParamERSt6vectorISt4pairINSt7__cxx1112basic_stringIcSt11char_traitsIcESaIcEEES9_ESaISA_EEPKcd(ptr noundef nonnull align 8 dereferenceable(24) %0, ptr noundef @_ZN19OpenColorIO_v2_4devL9ATTR_BASEE, double noundef %1)
  %2 = load ptr, ptr %attributes.addr, align 8
  %3 = load ptr, ptr %params.addr, align 8
  %call = call noundef nonnull align 8 dereferenceable(8) ptr @_ZNKSt6vectorIdSaIdEEixEm(ptr noundef nonnull align 8 dereferenceable(24) %3, i64 noundef 2) #3
  %4 = load double, ptr %call, align 8
  call void @_ZN19OpenColorIO_v2_4dev12_GLOBAL__N_112_GLOBAL__N_111AddLogParamERSt6vectorISt4pairINSt7__cxx1112basic_stringIcSt11char_traitsIcESaIcEEES9_ESaISA_EEPKcd(ptr noundef nonnull align 8 dereferenceable(24) %2, ptr noundef @_ZN19OpenColorIO_v2_4devL17ATTR_LINSIDESLOPEE, double noundef %4)
  %5 = load ptr, ptr %attributes.addr, align 8
  %6 = load ptr, ptr %params.addr, align 8
  %call1 = call noundef nonnull align 8 dereferenceable(8) ptr @_ZNKSt6vectorIdSaIdEEixEm(ptr noundef nonnull align 8 dereferenceable(24) %6, i64 noundef 3) #3
  %7 = load double, ptr %call1, align 8
  call void @_ZN19OpenColorIO_v2_4dev12_GLOBAL__N_112_GLOBAL__N_111AddLogParamERSt6vectorISt4pairINSt7__cxx1112basic_stringIcSt11char_traitsIcESaIcEEES9_ESaISA_EEPKcd(ptr noundef nonnull align 8 dereferenceable(24) %5, ptr noundef @_ZN19OpenColorIO_v2_4devL18ATTR_LINSIDEOFFSETE, double noundef %7)
  %8 = load ptr, ptr %attributes.addr, align 8
  %9 = load ptr, ptr %params.addr, align 8
  %call2 = call noundef nonnull align 8 dereferenceable(8) ptr @_ZNKSt6vectorIdSaIdEEixEm(ptr noundef nonnull align 8 dereferenceable(24) %9, i64 noundef 0) #3
  %10 = load double, ptr %call2, align 8
  call void @_ZN19OpenColorIO_v2_4dev12_GLOBAL__N_112_GLOBAL__N_111AddLogParamERSt6vectorISt4pairINSt7__cxx1112basic_stringIcSt11char_traitsIcESaIcEEES9_ESaISA_EEPKcd(ptr noundef nonnull align 8 dereferenceable(24) %8, ptr noundef @_ZN19OpenColorIO_v2_4devL17ATTR_LOGSIDESLOPEE, double noundef %10)
  %11 = load ptr, ptr %attributes.addr, align 8
  %12 = load ptr, ptr %params.addr, align 8
  %call3 = call noundef nonnull align 8 dereferenceable(8) ptr @_ZNKSt6vectorIdSaIdEEixEm(ptr noundef nonnull align 8 dereferenceable(24) %12, i64 noundef 1) #3
  %13 = load double, ptr %call3, align 8
  call void @_ZN19OpenColorIO_v2_4dev12_GLOBAL__N_112_GLOBAL__N_111AddLogParamERSt6vectorISt4pairINSt7__cxx1112basic_stringIcSt11char_traitsIcESaIcEEES9_ESaISA_EEPKcd(ptr noundef nonnull align 8 dereferenceable(24) %11, ptr noundef @_ZN19OpenColorIO_v2_4devL18ATTR_LOGSIDEOFFSETE, double noundef %13)
  %14 = load ptr, ptr %params.addr, align 8
  %call4 = call noundef i64 @_ZNKSt6vectorIdSaIdEE4sizeEv(ptr noundef nonnull align 8 dereferenceable(24) %14) #3
  %cmp = icmp ugt i64 %call4, 4
  br i1 %cmp, label %if.then, label %if.end

if.then:                                          ; preds = %entry
  %15 = load ptr, ptr %attributes.addr, align 8
  %16 = load ptr, ptr %params.addr, align 8
  %call5 = call noundef nonnull align 8 dereferenceable(8) ptr @_ZNKSt6vectorIdSaIdEEixEm(ptr noundef nonnull align 8 dereferenceable(24) %16, i64 noundef 4) #3
  %17 = load double, ptr %call5, align 8
  call void @_ZN19OpenColorIO_v2_4dev12_GLOBAL__N_112_GLOBAL__N_111AddLogParamERSt6vectorISt4pairINSt7__cxx1112basic_stringIcSt11char_traitsIcESaIcEEES9_ESaISA_EEPKcd(ptr noundef nonnull align 8 dereferenceable(24) %15, ptr noundef @_ZN19OpenColorIO_v2_4devL17ATTR_LINSIDEBREAKE, double noundef %17)
  br label %if.end

if.end:                                           ; preds = %if.then, %entry
  %18 = load ptr, ptr %params.addr, align 8
  %call6 = call noundef i64 @_ZNKSt6vectorIdSaIdEE4sizeEv(ptr noundef nonnull align 8 dereferenceable(24) %18) #3
  %cmp7 = icmp ugt i64 %call6, 5
  br i1 %cmp7, label %if.then8, label %if.end10

if.then8:                                         ; preds = %if.end
  %19 = load ptr, ptr %attributes.addr, align 8
  %20 = load ptr, ptr %params.addr, align 8
  %call9 = call noundef nonnull align 8 dereferenceable(8) ptr @_ZNKSt6vectorIdSaIdEEixEm(ptr noundef nonnull align 8 dereferenceable(24) %20, i64 noundef 5) #3
  %21 = load double, ptr %call9, align 8
  call void @_ZN19OpenColorIO_v2_4dev12_GLOBAL__N_112_GLOBAL__N_111AddLogParamERSt6vectorISt4pairINSt7__cxx1112basic_stringIcSt11char_traitsIcESaIcEEES9_ESaISA_EEPKcd(ptr noundef nonnull align 8 dereferenceable(24) %19, ptr noundef @_ZN19OpenColorIO_v2_4devL16ATTR_LINEARSLOPEE, double noundef %21)
  br label %if.end10

if.end10:                                         ; preds = %if.then8, %if.end
  ret void
}