; Function Attrs: mustprogress uwtable
define internal fastcc void @_ZN19OpenColorIO_v2_4dev12_GLOBAL__N_112_GLOBAL__N_112AddLogParamsERSt6vectorISt4pairINSt7__cxx1112basic_stringIcSt11char_traitsIcESaIcEEES9_ESaISA_EERKS2_IdSaIdEEd(ptr noundef nonnull align 8 dereferenceable(24) %attributes, ptr nocapture noundef nonnull readonly align 8 dereferenceable(24) %params, double noundef %base) unnamed_addr #4 {
entry:
  tail call fastcc void @_ZN19OpenColorIO_v2_4dev12_GLOBAL__N_112_GLOBAL__N_111AddLogParamERSt6vectorISt4pairINSt7__cxx1112basic_stringIcSt11char_traitsIcESaIcEEES9_ESaISA_EEPKcd(ptr noundef nonnull align 8 dereferenceable(24) %attributes, ptr noundef nonnull @_ZN19OpenColorIO_v2_4devL9ATTR_BASEE, double noundef %base)
  %0 = load ptr, ptr %params, align 8
  %add.ptr.i = getelementptr inbounds i8, ptr %0, i64 16
  %1 = load double, ptr %add.ptr.i, align 8
  tail call fastcc void @_ZN19OpenColorIO_v2_4dev12_GLOBAL__N_112_GLOBAL__N_111AddLogParamERSt6vectorISt4pairINSt7__cxx1112basic_stringIcSt11char_traitsIcESaIcEEES9_ESaISA_EEPKcd(ptr noundef nonnull align 8 dereferenceable(24) %attributes, ptr noundef nonnull @_ZN19OpenColorIO_v2_4devL17ATTR_LINSIDESLOPEE, double noundef %1)
  %2 = load ptr, ptr %params, align 8
  %add.ptr.i14 = getelementptr inbounds i8, ptr %2, i64 24
  %3 = load double, ptr %add.ptr.i14, align 8
  tail call fastcc void @_ZN19OpenColorIO_v2_4dev12_GLOBAL__N_112_GLOBAL__N_111AddLogParamERSt6vectorISt4pairINSt7__cxx1112basic_stringIcSt11char_traitsIcESaIcEEES9_ESaISA_EEPKcd(ptr noundef nonnull align 8 dereferenceable(24) %attributes, ptr noundef nonnull @_ZN19OpenColorIO_v2_4devL18ATTR_LINSIDEOFFSETE, double noundef %3)
  %4 = load ptr, ptr %params, align 8
  %5 = load double, ptr %4, align 8
  tail call fastcc void @_ZN19OpenColorIO_v2_4dev12_GLOBAL__N_112_GLOBAL__N_111AddLogParamERSt6vectorISt4pairINSt7__cxx1112basic_stringIcSt11char_traitsIcESaIcEEES9_ESaISA_EEPKcd(ptr noundef nonnull align 8 dereferenceable(24) %attributes, ptr noundef nonnull @_ZN19OpenColorIO_v2_4devL17ATTR_LOGSIDESLOPEE, double noundef %5)
  %6 = load ptr, ptr %params, align 8
  %add.ptr.i15 = getelementptr inbounds i8, ptr %6, i64 8
  %7 = load double, ptr %add.ptr.i15, align 8
  tail call fastcc void @_ZN19OpenColorIO_v2_4dev12_GLOBAL__N_112_GLOBAL__N_111AddLogParamERSt6vectorISt4pairINSt7__cxx1112basic_stringIcSt11char_traitsIcESaIcEEES9_ESaISA_EEPKcd(ptr noundef nonnull align 8 dereferenceable(24) %attributes, ptr noundef nonnull @_ZN19OpenColorIO_v2_4devL18ATTR_LOGSIDEOFFSETE, double noundef %7)
  %_M_finish.i = getelementptr inbounds i8, ptr %params, i64 8
  %8 = load ptr, ptr %_M_finish.i, align 8
  %9 = load ptr, ptr %params, align 8
  %sub.ptr.lhs.cast.i = ptrtoint ptr %8 to i64
  %sub.ptr.rhs.cast.i = ptrtoint ptr %9 to i64
  %sub.ptr.sub.i = sub i64 %sub.ptr.lhs.cast.i, %sub.ptr.rhs.cast.i
  %cmp = icmp ugt i64 %sub.ptr.sub.i, 32
  br i1 %cmp, label %if.end, label %if.end10

if.end:                                           ; preds = %entry
  %add.ptr.i16 = getelementptr inbounds i8, ptr %9, i64 32
  %10 = load double, ptr %add.ptr.i16, align 8
  tail call fastcc void @_ZN19OpenColorIO_v2_4dev12_GLOBAL__N_112_GLOBAL__N_111AddLogParamERSt6vectorISt4pairINSt7__cxx1112basic_stringIcSt11char_traitsIcESaIcEEES9_ESaISA_EEPKcd(ptr noundef nonnull align 8 dereferenceable(24) %attributes, ptr noundef nonnull @_ZN19OpenColorIO_v2_4devL17ATTR_LINSIDEBREAKE, double noundef %10)
  %.pre = load ptr, ptr %_M_finish.i, align 8
  %.pre23 = load ptr, ptr %params, align 8
  %.pre24 = ptrtoint ptr %.pre to i64
  %.pre25 = ptrtoint ptr %.pre23 to i64
  %.pre26 = sub i64 %.pre24, %.pre25
  %11 = icmp ugt i64 %.pre26, 40
  br i1 %11, label %if.then8, label %if.end10

if.then8:                                         ; preds = %if.end
  %add.ptr.i22 = getelementptr inbounds i8, ptr %.pre23, i64 40
  %12 = load double, ptr %add.ptr.i22, align 8
  tail call fastcc void @_ZN19OpenColorIO_v2_4dev12_GLOBAL__N_112_GLOBAL__N_111AddLogParamERSt6vectorISt4pairINSt7__cxx1112basic_stringIcSt11char_traitsIcESaIcEEES9_ESaISA_EEPKcd(ptr noundef nonnull align 8 dereferenceable(24) %attributes, ptr noundef nonnull @_ZN19OpenColorIO_v2_4devL16ATTR_LINEARSLOPEE, double noundef %12)
  br label %if.end10

if.end10:                                         ; preds = %entry, %if.then8, %if.end
  ret void
}